Certificate:
    Data:
        Version: 3 (0x2)
        Serial Number: 1 (0x1)
    Signature Algorithm: sha256WithRSAEncryption
        Issuer: C=AU, ST=Some-State, O=Internet Widgits Pty Ltd, CN=soaer.com
        Validity
            Not Before: Feb 23 08:41:18 2016 GMT
            Not After : Feb 22 08:41:18 2021 GMT
        Subject: C=AU, ST=Some-State, O=Internet Widgits Pty Ltd, CN=soaer.com
        Subject Public Key Info:
            Public Key Algorithm: rsaEncryption
                Public-Key: (2048 bit)
                Modulus:
                    00:be:46:fc:87:7d:40:40:05:c8:ed:55:57:2b:c4:
                    71:ca:e2:d4:d1:07:90:7d:db:38:f2:56:55:0d:f2:
                    b4:f3:cd:2c:45:39:cd:c2:b6:02:f9:0c:8f:18:93:
                    78:94:62:30:69:44:dd:d0:1e:1c:0d:9c:1a:d7:6d:
                    23:77:49:40:0e:54:78:2b:6e:78:4c:36:55:3b:dc:
                    8f:3a:f2:4f:7e:b0:4c:8c:78:5b:67:82:d0:b0:3b:
                    f0:05:b0:2d:6a:17:54:8f:73:a9:ba:cd:29:f9:04:
                    28:aa:77:8d:79:15:c1:eb:0b:ed:dd:24:ed:b9:0d:
                    d6:72:38:23:8e:3b:1a:c2:e1:b5:11:49:73:4a:9e:
                    02:9a:be:c0:ab:6c:95:68:52:98:72:d5:48:90:f8:
                    0c:91:86:11:ff:52:2d:c3:cf:e1:f3:57:1f:7b:fe:
                    0b:c7:b4:d1:0e:32:d0:7c:65:0f:1d:9b:bf:af:1a:
                    a7:e2:81:3c:b7:11:f6:11:dd:c6:d1:fc:26:d6:ce:
                    0f:a4:17:87:0c:cb:f2:17:0c:fe:ea:b4:fe:cf:87:
                    ca:fa:01:38:d2:f0:94:3f:41:b5:d5:35:05:58:3b:
                    15:23:ef:d5:3f:5e:5c:ab:13:10:24:f5:cf:58:60:
                    67:63:42:55:07:1c:d0:5d:85:d9:42:e1:0f:0d:e1:
                    1c:c1
                Exponent: 65537 (0x10001)
        X509v3 extensions:
            X509v3 Basic Constraints: 
                CA:FALSE
            Netscape Comment: 
                OpenSSL Generated Certificate
            X509v3 Subject Key Identifier: 
                4C:EE:23:02:58:73:D8:14:E9:F1:BE:AF:19:E0:B5:53:3A:8F:2B:33
            X509v3 Authority Key Identifier: 
                keyid:3C:83:98:42:58:D5:38:D7:72:85:36:E7:98:37:9D:84:BD:23:A4:62

    Signature Algorithm: sha256WithRSAEncryption
         af:46:62:f5:38:64:74:50:ee:c4:3c:e5:2c:e9:6e:79:ee:10:
         f5:5c:8d:f0:2e:b4:31:f3:c0:29:cb:da:ce:63:ac:d5:db:e7:
         42:75:8d:73:49:3b:87:7a:ba:01:01:f2:c9:9e:fc:f1:d2:4c:
         8d:86:62:66:4c:a8:23:dc:a7:81:f7:a1:e0:88:48:52:1a:e6:
         ad:35:97:ad:d2:ce:92:e2:0a:1d:7f:ae:6a:c8:d8:2a:91:bc:
         1d:ba:bd:41:b4:d6:c3:f4:88:90:95:0f:0d:ca:8e:d7:12:63:
         d7:90:86:72:69:44:e0:d6:a1:9a:09:42:fb:82:ac:da:c8:06:
         f8:8b:1c:e8:98:4e:71:e1:f3:0c:41:67:49:1d:07:c1:2f:8d:
         39:9e:ee:aa:d2:0e:f0:bc:9e:12:d4:ab:16:dc:a1:f2:e3:11:
         7d:98:f8:30:f0:58:a8:82:c7:dd:8d:15:a8:a9:20:a0:01:58:
         d0:7b:ee:b2:8a:4e:0b:34:35:f5:e0:4d:9c:4d:eb:6b:43:eb:
         ba:5a:d2:19:80:b7:16:95:0e:4d:df:d2:93:57:69:09:77:4f:
         d3:8a:c3:85:40:16:a3:2e:42:cc:30:a7:60:c1:e9:71:be:fa:
         e9:94:b3:70:81:9e:50:0a:c8:ef:f9:28:26:10:02:81:c3:17:
         6d:cf:91:85
-----BEGIN CERTIFICATE-----
MIIDqDCCApCgAwIBAgIBATANBgkqhkiG9w0BAQsFADBZMQswCQYDVQQGEwJBVTET
MBEGA1UECAwKU29tZS1TdGF0ZTEhMB8GA1UECgwYSW50ZXJuZXQgV2lkZ2l0cyBQ
dHkgTHRkMRIwEAYDVQQDDAlzb2Flci5jb20wHhcNMTYwMjIzMDg0MTE4WhcNMjEw
MjIyMDg0MTE4WjBZMQswCQYDVQQGEwJBVTETMBEGA1UECAwKU29tZS1TdGF0ZTEh
MB8GA1UECgwYSW50ZXJuZXQgV2lkZ2l0cyBQdHkgTHRkMRIwEAYDVQQDDAlzb2Fl
ci5jb20wggEiMA0GCSqGSIb3DQEBAQUAA4IBDwAwggEKAoIBAQC+RvyHfUBABcjt
VVcrxHHK4tTRB5B92zjyVlUN8rTzzSxFOc3CtgL5DI8Yk3iUYjBpRN3QHhwNnBrX
bSN3SUAOVHgrbnhMNlU73I868k9+sEyMeFtngtCwO/AFsC1qF1SPc6m6zSn5BCiq
d415FcHrC+3dJO25DdZyOCOOOxrC4bURSXNKngKavsCrbJVoUphy1UiQ+AyRhhH/
Ui3Dz+HzVx97/gvHtNEOMtB8ZQ8dm7+vGqfigTy3EfYR3cbR/CbWzg+kF4cMy/IX
DP7qtP7Ph8r6ATjS8JQ/QbXVNQVYOxUj79U/XlyrExAk9c9YYGdjQlUHHNBdhdlC
4Q8N4RzBAgMBAAGjezB5MAkGA1UdEwQCMAAwLAYJYIZIAYb4QgENBB8WHU9wZW5T
U0wgR2VuZXJhdGVkIENlcnRpZmljYXRlMB0GA1UdDgQWBBRM7iMCWHPYFOnxvq8Z
4LVTOo8rMzAfBgNVHSMEGDAWgBQ8g5hCWNU413KFNueYN52EvSOkYjANBgkqhkiG
9w0BAQsFAAOCAQEAr0Zi9ThkdFDuxDzlLOluee4Q9VyN8C60MfPAKcvazmOs1dvn
QnWNc0k7h3q6AQHyyZ788dJMjYZiZkyoI9yngfeh4IhIUhrmrTWXrdLOkuIKHX+u
asjYKpG8Hbq9QbTWw/SIkJUPDcqO1xJj15CGcmlE4NahmglC+4Ks2sgG+Isc6JhO
ceHzDEFnSR0HwS+NOZ7uqtIO8LyeEtSrFtyh8uMRfZj4MPBYqILH3Y0VqKkgoAFY
0HvusopOCzQ19eBNnE3ra0PrulrSGYC3FpUOTd/Sk1dpCXdP04rDhUAWoy5CzDCn
YMHpcb766ZSzcIGeUArI7/koJhACgcMXbc+RhQ==
-----END CERTIFICATE-----
